target datalayout = "e-m:e-p270:32:32-p271:32:32-p272:64:64-i64:64-i128:128-f80:128-n8:16:32:64-S128"
target triple = "x86_64-pc-linux-gnu"

%struct.H5S_select_class_t = type { i32, ptr, ptr, ptr, ptr, ptr, ptr, ptr, ptr, ptr, ptr, ptr, ptr, ptr, ptr, ptr, ptr, ptr, ptr, ptr, ptr }

@.str.1 = private unnamed_addr constant [103 x i8] c"generated/home/dtcxzyw/WorkSpace/Projects/compilers/llvm-opt-benchmark/bench/hdf5/hdf5/src/H5Sselect.c\00", align 1
@H5E_DATASPACE_g = external global i64, align 8
@__func__.H5S_select_deserialize = private unnamed_addr constant [23 x i8] c"H5S_select_deserialize\00", align 1
@H5E_OVERFLOW_g = external global i64, align 8
@.str.10 = private unnamed_addr constant [46 x i8] c"buffer overflow while decoding selection type\00", align 1
@H5S_sel_point = external constant [1 x %struct.H5S_select_class_t], align 16
@H5S_sel_hyper = external constant [1 x %struct.H5S_select_class_t], align 16
@H5S_sel_all = external constant [1 x %struct.H5S_select_class_t], align 16
@H5S_sel_none = external constant [1 x %struct.H5S_select_class_t], align 16
@H5E_CANTLOAD_g = external global i64, align 8
@.str.11 = private unnamed_addr constant [28 x i8] c"can't deserialize selection\00", align 1

; Function Attrs: nounwind uwtable
define i32 @H5S_select_deserialize(ptr noundef %0, ptr noundef %1, i64 noundef %2) #0 {
  %4 = alloca ptr, align 8
  %5 = alloca ptr, align 8
  %6 = alloca i64, align 8
  %7 = alloca i32, align 4
  %8 = alloca i32, align 4
  %9 = alloca ptr, align 8
  %10 = alloca i8, align 1
  %11 = alloca i8, align 1
  store ptr %0, ptr %4, align 8
  store ptr %1, ptr %5, align 8
  store i64 %2, ptr %6, align 8
  store i32 -1, ptr %8, align 4
  %12 = load ptr, ptr %5, align 8
  %13 = load ptr, ptr %12, align 8
  %14 = load i64, ptr %6, align 8
  %15 = getelementptr inbounds i8, ptr %13, i64 %14
  %16 = getelementptr inbounds i8, ptr %15, i64 -1
  store ptr %16, ptr %9, align 8
  %17 = load i64, ptr %6, align 8
  %18 = icmp eq i64 %17, -1
  %19 = select i1 %18, i32 1, i32 0
  %20 = icmp ne i32 %19, 0
  %21 = zext i1 %20 to i8
  store i8 %21, ptr %10, align 1
  store i8 0, ptr %11, align 1
  %22 = load i8, ptr %10, align 1
  %23 = trunc i8 %22 to i1
  br i1 %23, label %24, label %25

24:                                               ; preds = %3
  br i1 false, label %39, label %54

25:                                               ; preds = %3
  %26 = load ptr, ptr %5, align 8
  %27 = load ptr, ptr %26, align 8
  %28 = load ptr, ptr %9, align 8
  %29 = icmp ugt ptr %27, %28
  br i1 %29, label %39, label %30

30:                                               ; preds = %25
  %31 = load ptr, ptr %9, align 8
  %32 = load ptr, ptr %5, align 8
  %33 = load ptr, ptr %32, align 8
  %34 = ptrtoint ptr %31 to i64
  %35 = ptrtoint ptr %33 to i64
  %36 = sub i64 %34, %35
  %37 = add nsw i64 %36, 1
  %38 = icmp ugt i64 4, %37
  br i1 %38, label %39, label %54

39:                                               ; preds = %30, %25, %24
  br label %40

40:                                               ; preds = %39
  br label %41

41:                                               ; preds = %40
  br label %42

42:                                               ; preds = %41
  %43 = load i64, ptr @H5E_DATASPACE_g, align 8
  %44 = load i64, ptr @H5E_OVERFLOW_g, align 8
  %45 = call i32 (ptr, ptr, i32, i64, i64, ptr, ...) @H5E_printf_stack(ptr noundef @.str.1, ptr noundef @__func__.H5S_select_deserialize, i32 noundef 525, i64 noundef %43, i64 noundef %44, ptr noundef @.str.10)
  br label %46

46:                                               ; preds = %42
  store i8 1, ptr %11, align 1
  %47 = load i8, ptr %11, align 1
  %48 = trunc i8 %47 to i1
  %49 = zext i1 %48 to i8
  store i8 %49, ptr %11, align 1
  br label %50

50:                                               ; preds = %46
  br label %51

51:                                               ; preds = %50
  store i32 -1, ptr %8, align 4
  br label %155

52:                                               ; No predecessors!
  br label %53

53:                                               ; preds = %52
  br label %54

54:                                               ; preds = %53, %30, %24
  br label %55

55:                                               ; preds = %54
  %56 = load ptr, ptr %5, align 8
  %57 = load ptr, ptr %56, align 8
  %58 = load i8, ptr %57, align 1
  %59 = zext i8 %58 to i32
  %60 = and i32 %59, 255
  store i32 %60, ptr %7, align 4
  %61 = load ptr, ptr %5, align 8
  %62 = load ptr, ptr %61, align 8
  %63 = getelementptr inbounds i8, ptr %62, i32 1
  store ptr %63, ptr %61, align 8
  %64 = load ptr, ptr %5, align 8
  %65 = load ptr, ptr %64, align 8
  %66 = load i8, ptr %65, align 1
  %67 = zext i8 %66 to i32
  %68 = and i32 %67, 255
  %69 = shl i32 %68, 8
  %70 = load i32, ptr %7, align 4
  %71 = or i32 %70, %69
  store i32 %71, ptr %7, align 4
  %72 = load ptr, ptr %5, align 8
  %73 = load ptr, ptr %72, align 8
  %74 = getelementptr inbounds i8, ptr %73, i32 1
  store ptr %74, ptr %72, align 8
  %75 = load ptr, ptr %5, align 8
  %76 = load ptr, ptr %75, align 8
  %77 = load i8, ptr %76, align 1
  %78 = zext i8 %77 to i32
  %79 = and i32 %78, 255
  %80 = shl i32 %79, 16
  %81 = load i32, ptr %7, align 4
  %82 = or i32 %81, %80
  store i32 %82, ptr %7, align 4
  %83 = load ptr, ptr %5, align 8
  %84 = load ptr, ptr %83, align 8
  %85 = getelementptr inbounds i8, ptr %84, i32 1
  store ptr %85, ptr %83, align 8
  %86 = load ptr, ptr %5, align 8
  %87 = load ptr, ptr %86, align 8
  %88 = load i8, ptr %87, align 1
  %89 = zext i8 %88 to i32
  %90 = and i32 %89, 255
  %91 = shl i32 %90, 24
  %92 = load i32, ptr %7, align 4
  %93 = or i32 %92, %91
  store i32 %93, ptr %7, align 4
  %94 = load ptr, ptr %5, align 8
  %95 = load ptr, ptr %94, align 8
  %96 = getelementptr inbounds i8, ptr %95, i32 1
  store ptr %96, ptr %94, align 8
  br label %97

97:                                               ; preds = %55
  %98 = load i32, ptr %7, align 4
  switch i32 %98, label %135 [
    i32 1, label %99
    i32 2, label %108
    i32 3, label %117
    i32 0, label %126
  ]

99:                                               ; preds = %97
  %100 = load ptr, ptr getelementptr inbounds (%struct.H5S_select_class_t, ptr @H5S_sel_point, i32 0, i32 6), align 16
  %101 = load ptr, ptr %4, align 8
  %102 = load ptr, ptr %5, align 8
  %103 = load i64, ptr %6, align 8
  %104 = sub i64 %103, 4
  %105 = load i8, ptr %10, align 1
  %106 = trunc i8 %105 to i1
  %107 = call i32 %100(ptr noundef %101, ptr noundef %102, i64 noundef %104, i1 noundef zeroext %106)
  store i32 %107, ptr %8, align 4
  br label %136

108:                                              ; preds = %97
  %109 = load ptr, ptr getelementptr inbounds (%struct.H5S_select_class_t, ptr @H5S_sel_hyper, i32 0, i32 6), align 16
  %110 = load ptr, ptr %4, align 8
  %111 = load ptr, ptr %5, align 8
  %112 = load i64, ptr %6, align 8
  %113 = sub i64 %112, 4
  %114 = load i8, ptr %10, align 1
  %115 = trunc i8 %114 to i1
  %116 = call i32 %109(ptr noundef %110, ptr noundef %111, i64 noundef %113, i1 noundef zeroext %115)
  store i32 %116, ptr %8, align 4
  br label %136

117:                                              ; preds = %97
  %118 = load ptr, ptr getelementptr inbounds (%struct.H5S_select_class_t, ptr @H5S_sel_all, i32 0, i32 6), align 16
  %119 = load ptr, ptr %4, align 8
  %120 = load ptr, ptr %5, align 8
  %121 = load i64, ptr %6, align 8
  %122 = sub i64 %121, 4
  %123 = load i8, ptr %10, align 1
  %124 = trunc i8 %123 to i1
  %125 = call i32 %118(ptr noundef %119, ptr noundef %120, i64 noundef %122, i1 noundef zeroext %124)
  store i32 %125, ptr %8, align 4
  br label %136

126:                                              ; preds = %97
  %127 = load ptr, ptr getelementptr inbounds (%struct.H5S_select_class_t, ptr @H5S_sel_none, i32 0, i32 6), align 16
  %128 = load ptr, ptr %4, align 8
  %129 = load ptr, ptr %5, align 8
  %130 = load i64, ptr %6, align 8
  %131 = sub i64 %130, 4
  %132 = load i8, ptr %10, align 1
  %133 = trunc i8 %132 to i1
  %134 = call i32 %127(ptr noundef %128, ptr noundef %129, i64 noundef %131, i1 noundef zeroext %133)
  store i32 %134, ptr %8, align 4
  br label %136

135:                                              ; preds = %97
  br label %136

136:                                              ; preds = %135, %126, %117, %108, %99
  %137 = load i32, ptr %8, align 4
  %138 = icmp slt i32 %137, 0
  br i1 %138, label %139, label %154

139:                                              ; preds = %136
  br label %140

140:                                              ; preds = %139
  br label %141

141:                                              ; preds = %140
  br label %142

142:                                              ; preds = %141
  %143 = load i64, ptr @H5E_DATASPACE_g, align 8
  %144 = load i64, ptr @H5E_CANTLOAD_g, align 8
  %145 = call i32 (ptr, ptr, i32, i64, i64, ptr, ...) @H5E_printf_stack(ptr noundef @.str.1, ptr noundef @__func__.H5S_select_deserialize, i32 noundef 551, i64 noundef %143, i64 noundef %144, ptr noundef @.str.11)
  br label %146

146:                                              ; preds = %142
  store i8 1, ptr %11, align 1
  %147 = load i8, ptr %11, align 1
  %148 = trunc i8 %147 to i1
  %149 = zext i1 %148 to i8
  store i8 %149, ptr %11, align 1
  br label %150

150:                                              ; preds = %146
  br label %151

151:                                              ; preds = %150
  store i32 -1, ptr %8, align 4
  br label %155

152:                                              ; No predecessors!
  br label %153

153:                                              ; preds = %152
  br label %154

154:                                              ; preds = %153, %136
  br label %155

155:                                              ; preds = %154, %151, %51
  %156 = load i32, ptr %8, align 4
  ret i32 %156
}