; Function Attrs: nounwind uwtable
define range(i32 -1, -2147483648) i32 @H5S_select_deserialize(ptr noundef %0, ptr noundef %1, i64 noundef %2) local_unnamed_addr #3 {
  %4 = load ptr, ptr %1, align 8
  %5 = getelementptr inbounds i8, ptr %4, i64 %2
  %6 = getelementptr inbounds i8, ptr %5, i64 -1
  %7 = icmp eq i64 %2, -1
  br i1 %7, label %19, label %8

8:                                                ; preds = %3
  %9 = icmp ugt ptr %4, %6
  br i1 %9, label %15, label %10

10:                                               ; preds = %8
  %11 = ptrtoint ptr %6 to i64
  %12 = ptrtoint ptr %4 to i64
  %reass.sub = sub i64 %11, %12
  %13 = add i64 %reass.sub, 1
  %14 = icmp ult i64 %13, 4
  br i1 %14, label %15, label %19

15:                                               ; preds = %8, %10
  %16 = load i64, ptr @H5E_DATASPACE_g, align 8
  %17 = load i64, ptr @H5E_OVERFLOW_g, align 8
  %18 = tail call i32 (ptr, ptr, i32, i64, i64, ptr, ...) @H5E_printf_stack(ptr noundef nonnull @.str.1, ptr noundef nonnull @__func__.H5S_select_deserialize, i32 noundef 525, i64 noundef %16, i64 noundef %17, ptr noundef nonnull @.str.10) #7
  br label %47

19:                                               ; preds = %10, %3
  %20 = load i8, ptr %4, align 1
  %21 = zext i8 %20 to i32
  %22 = getelementptr inbounds i8, ptr %4, i64 1
  store ptr %22, ptr %1, align 8
  %23 = load i8, ptr %22, align 1
  %24 = zext i8 %23 to i32
  %25 = shl nuw nsw i32 %24, 8
  %26 = or disjoint i32 %25, %21
  %27 = getelementptr inbounds i8, ptr %4, i64 2
  store ptr %27, ptr %1, align 8
  %28 = load i8, ptr %27, align 1
  %29 = zext i8 %28 to i32
  %30 = shl nuw nsw i32 %29, 16
  %31 = or disjoint i32 %26, %30
  %32 = getelementptr inbounds i8, ptr %4, i64 3
  store ptr %32, ptr %1, align 8
  %33 = load i8, ptr %32, align 1
  %34 = zext i8 %33 to i32
  %35 = shl nuw i32 %34, 24
  %36 = or disjoint i32 %31, %35
  %37 = getelementptr inbounds i8, ptr %4, i64 4
  store ptr %37, ptr %1, align 8
  %38 = icmp ult i32 %36, 4
  br i1 %38, label %switch.lookup, label %.thread

switch.lookup:                                    ; preds = %19
  %39 = zext nneg i32 %36 to i64
  %switch.gep = getelementptr inbounds [4 x ptr], ptr @switch.table.H5S_select_deserialize, i64 0, i64 %39
  %switch.load = load ptr, ptr %switch.gep, align 8
  %40 = load ptr, ptr %switch.load, align 16
  %41 = add i64 %2, -4
  %42 = tail call i32 %40(ptr noundef %0, ptr noundef nonnull %1, i64 noundef %41, i1 noundef zeroext %7) #7
  %43 = icmp slt i32 %42, 0
  br i1 %43, label %.thread, label %47

.thread:                                          ; preds = %19, %switch.lookup
  %44 = load i64, ptr @H5E_DATASPACE_g, align 8
  %45 = load i64, ptr @H5E_CANTLOAD_g, align 8
  %46 = tail call i32 (ptr, ptr, i32, i64, i64, ptr, ...) @H5E_printf_stack(ptr noundef nonnull @.str.1, ptr noundef nonnull @__func__.H5S_select_deserialize, i32 noundef 551, i64 noundef %44, i64 noundef %45, ptr noundef nonnull @.str.11) #7
  br label %47

47:                                               ; preds = %switch.lookup, %.thread, %15
  %.1 = phi i32 [ -1, %.thread ], [ %42, %switch.lookup ], [ -1, %15 ]
  ret i32 %.1
}